; ModuleID = 'bench/openjdk/original/stream.ll'
source_filename = "bench/openjdk/original/stream.ll"
target datalayout = "e-m:e-p270:32:32-p271:32:32-p272:64:64-i64:64-i128:128-f80:128-n8:16:32:64-S128"
target triple = "x86_64-pc-linux-gnu"

; Function Attrs: mustprogress nofree norecurse nosync nounwind willreturn memory(none) uwtable
define hidden noundef float @stream_encodeFloat(float noundef %0) local_unnamed_addr #0 {
  %2 = bitcast float %0 to i32
  %3 = tail call i32 @llvm.bswap.i32(i32 %2)
  %4 = bitcast i32 %3 to float
  ret float %4
}

; Function Attrs: mustprogress nofree norecurse nosync nounwind willreturn memory(none) uwtable
define hidden noundef double @stream_encodeDouble(double noundef %0) local_unnamed_addr #0 {
  %2 = bitcast double %0 to i64
  %3 = tail call i64 @llvm.bswap.i64(i64 %2)
  %4 = bitcast i64 %3 to double
  ret double %4
}

; Function Attrs: nocallback nofree nosync nounwind speculatable willreturn memory(none)
declare i32 @llvm.bswap.i32(i32) #1

; Function Attrs: nocallback nofree nosync nounwind speculatable willreturn memory(none)
declare i64 @llvm.bswap.i64(i64) #1


!llvm.module.flags = !{!0, !1, !2, !3, !4, !5}

!0 = !{i32 7, !"Dwarf Version", i32 5}
!1 = !{i32 2, !"Debug Info Version", i32 3}
!2 = !{i32 1, !"wchar_size", i32 4}
!3 = !{i32 8, !"PIC Level", i32 2}
!4 = !{i32 7, !"uwtable", i32 2}
!5 = !{i32 7, !"frame-pointer", i32 2}
